target datalayout = "e-m:e-p270:32:32-p271:32:32-p272:64:64-i64:64-i128:128-f80:128-n8:16:32:64-S128"
target triple = "x86_64-pc-linux-gnu"

%class.OopHandle = type { ptr }
%class.JavaThread = type { %class.Thread, i8, %class.OopHandle, %class.OopHandle, %class.OopHandle, %class.OopHandle, %class.JavaFrameAnchor, ptr, %struct.JNIEnv_, ptr, ptr, ptr, ptr, ptr, ptr, ptr, ptr, %class.MemRegion, ptr, i8, ptr, ptr, ptr, i32, i32, %"struct.SafepointMechanism::ThreadData", ptr, ptr, i32, i32, i8, i8, i8, i8, i8, i8, i8, i32, i8, i32, i8, i8, i64, %union.anon, ptr, ptr, i64, i64, ptr, ptr, %class.StackOverflow, ptr, ptr, ptr, i32, i32, ptr, i32, i32, i32, ptr, ptr, i32, i64, i64, %class.StackWatermarks, %class.HandshakeState, ptr, i32, ptr, i32, i32, ptr, %class.Parker, ptr, ptr, %class.LockStack }
%class.Thread = type { %class.ThreadShadow.base, i64, [43 x i64], ptr, ptr, i32, ptr, i64, i64, %class.ThreadLocalAllocBuffer, i64, %class.ThreadHeapSampler, %class.ThreadStatisticalInfo, %class.JfrThreadLocal, ptr, ptr, ptr, ptr, ptr, ptr, i64, i32, i32, ptr, i32, i32, i32, i32, i8, ptr }
%class.ThreadShadow.base = type <{ ptr, ptr, ptr, i32 }>
%class.ThreadLocalAllocBuffer = type <{ ptr, ptr, ptr, ptr, ptr, i64, i64, i64, i64, i32, i32, i32, i32, i64, %class.AdaptiveWeightedAverage, [4 x i8] }>
%class.AdaptiveWeightedAverage = type { float, i32, i32, i8, float }
%class.ThreadHeapSampler = type { i64 }
%class.ThreadStatisticalInfo = type { i64, i64 }
%class.JfrThreadLocal = type <{ ptr, ptr, ptr, ptr, ptr, ptr, ptr, ptr, ptr, ptr, %class.RefCountHandle, i64, i64, i64, i64, i64, i64, i64, i64, i64, i64, i64, i32, i32, i32, i16, i8, i8, i8, i8, i8, [5 x i8] }>
%class.RefCountHandle = type { ptr }
%class.JavaFrameAnchor = type { ptr, ptr, ptr }
%struct.JNIEnv_ = type { ptr }
%class.MemRegion = type { ptr, i64 }
%"struct.SafepointMechanism::ThreadData" = type { i64, i64 }
%union.anon = type { ptr }
%class.StackOverflow = type { i32, ptr, ptr, ptr, ptr, ptr, ptr }
%class.StackWatermarks = type { ptr }
%class.HandshakeState = type <{ ptr, %class.FilterQueue, %class.Monitor, ptr, i8, i8, i8, [5 x i8] }>
%class.FilterQueue = type { ptr }
%class.Monitor = type { %class.Mutex }
%class.Mutex = type { ptr, %class.PlatformMonitor, ptr }
%class.PlatformMonitor = type { %class.PlatformMutex, %union.pthread_cond_t }
%class.PlatformMutex = type { %union.pthread_mutex_t }
%union.pthread_mutex_t = type { %struct.__pthread_mutex_s }
%struct.__pthread_mutex_s = type { i32, i32, i32, i32, i32, i16, i16, %struct.__pthread_internal_list }
%struct.__pthread_internal_list = type { ptr, ptr }
%union.pthread_cond_t = type { %struct.__pthread_cond_s }
%struct.__pthread_cond_s = type { %union.__atomic_wide_counter, %union.__atomic_wide_counter, [2 x i32], [2 x i32], i32, i32, [2 x i32] }
%union.__atomic_wide_counter = type { i64 }
%class.Parker = type { %class.PlatformParker }
%class.PlatformParker = type { i32, i32, [1 x %union.pthread_mutex_t], [2 x %union.pthread_cond_t] }
%class.LockStack = type { i32, i64, [8 x ptr] }
%class.anon = type { i8 }
%"struct.Atomic::LoadImpl" = type { i8 }
%"struct.Atomic::PlatformOrderedLoad" = type { i8 }
%class.ScopedFence = type { ptr }
%"struct.Atomic::LoadImpl.6" = type { i8 }
%"struct.Atomic::PlatformLoad" = type { i8 }

; Function Attrs: mustprogress nounwind uwtable
define internal void @_ZL16compiler_barrierv() #1 {
  call void asm sideeffect "", "~{memory},~{dirflag},~{fpsr},~{flags}"() #10, !srcloc !978
  ret void
}

; Function Attrs: mustprogress nounwind uwtable
define linkonce_odr hidden void @_ZN11OrderAccess7acquireEv() #1 comdat align 2 {
  call void @_ZL16compiler_barrierv()
  ret void
}

; Function Attrs: mustprogress nounwind uwtable
define linkonce_odr hidden void @_ZN18ScopedFenceGeneralIL15ScopedFenceType0EE7postfixEv(ptr noundef nonnull align 1 dereferenceable(1) %0) #1 comdat align 2 {
  %2 = alloca ptr, align 8
  store ptr %0, ptr %2, align 8
  call void @_ZN11OrderAccess7acquireEv()
  ret void
}

; Function Attrs: mustprogress nounwind uwtable
define linkonce_odr hidden noundef i32 @_ZNK6Atomic12PlatformLoadILm4EEclIjEET_PVKS3_(ptr noundef nonnull align 1 dereferenceable(1) %0, ptr noundef %1) #1 comdat align 2 {
  %3 = alloca ptr, align 8
  %4 = alloca ptr, align 8
  store ptr %0, ptr %3, align 8
  store ptr %1, ptr %4, align 8
  %5 = load ptr, ptr %4, align 8
  %6 = load volatile i32, ptr %5, align 4
  ret i32 %6
}

; Function Attrs: mustprogress nounwind uwtable
define linkonce_odr hidden void @_ZN18ScopedFenceGeneralIL15ScopedFenceType0EE6prefixEv(ptr noundef nonnull align 1 dereferenceable(1) %0) #1 comdat align 2 {
  %2 = alloca ptr, align 8
  store ptr %0, ptr %2, align 8
  ret void
}

; Function Attrs: mustprogress nounwind uwtable
define linkonce_odr hidden void @_ZN11ScopedFenceIL15ScopedFenceType0EE7postfixEv(ptr noundef nonnull align 8 dereferenceable(8) %0) #1 comdat align 2 {
  %2 = alloca ptr, align 8
  store ptr %0, ptr %2, align 8
  %3 = load ptr, ptr %2, align 8
  call void @_ZN18ScopedFenceGeneralIL15ScopedFenceType0EE7postfixEv(ptr noundef nonnull align 1 dereferenceable(1) %3)
  ret void
}

; Function Attrs: mustprogress nounwind uwtable
define linkonce_odr hidden noundef i32 @_ZNK6Atomic8LoadImplIjNS_12PlatformLoadILm4EEEvEclEPVKj(ptr noundef nonnull align 1 dereferenceable(1) %0, ptr noundef %1) #1 comdat align 2 {
  %3 = alloca ptr, align 8
  %4 = alloca ptr, align 8
  %5 = alloca %"struct.Atomic::PlatformLoad", align 1
  store ptr %0, ptr %3, align 8
  store ptr %1, ptr %4, align 8
  %6 = load ptr, ptr %4, align 8
  %7 = call noundef i32 @_ZNK6Atomic12PlatformLoadILm4EEclIjEET_PVKS3_(ptr noundef nonnull align 1 dereferenceable(1) %5, ptr noundef %6)
  ret i32 %7
}

; Function Attrs: mustprogress nounwind uwtable
define linkonce_odr hidden void @_ZN11ScopedFenceIL15ScopedFenceType0EE6prefixEv(ptr noundef nonnull align 8 dereferenceable(8) %0) #1 comdat align 2 {
  %2 = alloca ptr, align 8
  store ptr %0, ptr %2, align 8
  %3 = load ptr, ptr %2, align 8
  call void @_ZN18ScopedFenceGeneralIL15ScopedFenceType0EE6prefixEv(ptr noundef nonnull align 1 dereferenceable(1) %3)
  ret void
}

; Function Attrs: mustprogress nounwind uwtable
define linkonce_odr hidden void @_ZN11ScopedFenceIL15ScopedFenceType0EED2Ev(ptr noundef nonnull align 8 dereferenceable(8) %0) unnamed_addr #1 comdat align 2 {
  %2 = alloca ptr, align 8
  store ptr %0, ptr %2, align 8
  %3 = load ptr, ptr %2, align 8
  call void @_ZN11ScopedFenceIL15ScopedFenceType0EE7postfixEv(ptr noundef nonnull align 8 dereferenceable(8) %3)
  ret void
}

; Function Attrs: mustprogress nounwind uwtable
define linkonce_odr hidden noundef i32 @_ZN6Atomic4loadIjEET_PVKS1_(ptr noundef %0) #1 comdat align 2 {
  %2 = alloca ptr, align 8
  %3 = alloca %"struct.Atomic::LoadImpl.6", align 1
  store ptr %0, ptr %2, align 8
  %4 = load ptr, ptr %2, align 8
  %5 = call noundef i32 @_ZNK6Atomic8LoadImplIjNS_12PlatformLoadILm4EEEvEclEPVKj(ptr noundef nonnull align 1 dereferenceable(1) %3, ptr noundef %4)
  ret i32 %5
}

; Function Attrs: mustprogress nounwind uwtable
define linkonce_odr hidden void @_ZN11ScopedFenceIL15ScopedFenceType0EEC2EPv(ptr noundef nonnull align 8 dereferenceable(8) %0, ptr noundef %1) unnamed_addr #1 comdat align 2 {
  %3 = alloca ptr, align 8
  %4 = alloca ptr, align 8
  store ptr %0, ptr %3, align 8
  store ptr %1, ptr %4, align 8
  %5 = load ptr, ptr %3, align 8
  %6 = getelementptr inbounds %class.ScopedFence, ptr %5, i32 0, i32 0
  %7 = load ptr, ptr %4, align 8
  store ptr %7, ptr %6, align 8
  call void @_ZN11ScopedFenceIL15ScopedFenceType0EE6prefixEv(ptr noundef nonnull align 8 dereferenceable(8) %5)
  ret void
}

; Function Attrs: mustprogress nounwind uwtable
define linkonce_odr hidden noundef i32 @_ZN20PrimitiveConversions9TranslateIN10JavaThread15TerminatedTypesEvE7recoverEj(i32 noundef %0) #1 comdat align 2 {
  %2 = alloca i32, align 4
  store i32 %0, ptr %2, align 4
  %3 = load i32, ptr %2, align 4
  ret i32 %3
}

; Function Attrs: mustprogress nounwind uwtable
define linkonce_odr hidden noundef i32 @_ZNK6Atomic19PlatformOrderedLoadILm4EL15ScopedFenceType0EEclIjEET_PVKS4_(ptr noundef nonnull align 1 dereferenceable(1) %0, ptr noundef %1) #1 comdat align 2 {
  %3 = alloca ptr, align 8
  %4 = alloca ptr, align 8
  %5 = alloca %class.ScopedFence, align 8
  store ptr %0, ptr %3, align 8
  store ptr %1, ptr %4, align 8
  %6 = load ptr, ptr %4, align 8
  call void @_ZN11ScopedFenceIL15ScopedFenceType0EEC2EPv(ptr noundef nonnull align 8 dereferenceable(8) %5, ptr noundef %6)
  %7 = load ptr, ptr %4, align 8
  %8 = call noundef i32 @_ZN6Atomic4loadIjEET_PVKS1_(ptr noundef %7)
  call void @_ZN11ScopedFenceIL15ScopedFenceType0EED2Ev(ptr noundef nonnull align 8 dereferenceable(8) %5) #10
  ret i32 %8
}

; Function Attrs: mustprogress nounwind uwtable
define linkonce_odr hidden noundef i32 @_ZNK6Atomic8LoadImplIN10JavaThread15TerminatedTypesENS_19PlatformOrderedLoadILm4EL15ScopedFenceType0EEEvEclEPVKS2_(ptr noundef nonnull align 1 dereferenceable(1) %0, ptr noundef %1) #1 comdat align 2 {
  %3 = alloca ptr, align 8
  %4 = alloca ptr, align 8
  %5 = alloca i32, align 4
  %6 = alloca %"struct.Atomic::PlatformOrderedLoad", align 1
  store ptr %0, ptr %3, align 8
  store ptr %1, ptr %4, align 8
  %7 = load ptr, ptr %4, align 8
  %8 = call noundef i32 @_ZNK6Atomic19PlatformOrderedLoadILm4EL15ScopedFenceType0EEclIjEET_PVKS4_(ptr noundef nonnull align 1 dereferenceable(1) %6, ptr noundef %7)
  store i32 %8, ptr %5, align 4
  %9 = load i32, ptr %5, align 4
  %10 = call noundef i32 @_ZN20PrimitiveConversions9TranslateIN10JavaThread15TerminatedTypesEvE7recoverEj(i32 noundef %9)
  ret i32 %10
}

; Function Attrs: mustprogress nounwind uwtable
define linkonce_odr hidden noundef zeroext i1 @_ZNK10JavaThread19check_is_terminatedENS_15TerminatedTypesE(ptr noundef nonnull align 8 dereferenceable(1800) %0, i32 noundef %1) #1 comdat align 2 {
  %3 = alloca ptr, align 8
  %4 = alloca i32, align 4
  store ptr %0, ptr %3, align 8
  store i32 %1, ptr %4, align 4
  %5 = load i32, ptr %4, align 4
  %6 = icmp eq i32 %5, 57005
  br i1 %6, label %10, label %7

7:                                                ; preds = %2
  %8 = load i32, ptr %4, align 4
  %9 = icmp eq i32 %8, 57006
  br label %10

10:                                               ; preds = %7, %2
  %11 = phi i1 [ true, %2 ], [ %9, %7 ]
  ret i1 %11
}

; Function Attrs: mustprogress nounwind uwtable
define linkonce_odr hidden noundef i32 @_ZN6Atomic12load_acquireIN10JavaThread15TerminatedTypesEEET_PVKS3_(ptr noundef %0) #1 comdat align 2 {
  %2 = alloca ptr, align 8
  %3 = alloca %"struct.Atomic::LoadImpl", align 1
  store ptr %0, ptr %2, align 8
  %4 = load ptr, ptr %2, align 8
  %5 = call noundef i32 @_ZNK6Atomic8LoadImplIN10JavaThread15TerminatedTypesENS_19PlatformOrderedLoadILm4EL15ScopedFenceType0EEEvEclEPVKS2_(ptr noundef nonnull align 1 dereferenceable(1) %3, ptr noundef %4)
  ret i32 %5
}

; Function Attrs: mustprogress nounwind uwtable
define linkonce_odr hidden noundef i32 @_Z11in_ByteSizei(i32 noundef %0) #1 comdat {
  %2 = alloca i32, align 4
  store i32 %0, ptr %2, align 4
  %3 = load i32, ptr %2, align 4
  ret i32 %3
}

; Function Attrs: mustprogress nounwind uwtable
define linkonce_odr hidden noundef i64 @_ZZN10JavaThread22jni_environment_offsetEvENKUlvE_clEv(ptr noundef nonnull align 1 dereferenceable(1) %0) #1 comdat align 2 {
  %2 = alloca ptr, align 8
  %3 = alloca [1800 x i8], align 16
  %4 = alloca ptr, align 8
  %5 = alloca ptr, align 8
  store ptr %0, ptr %2, align 8
  %6 = getelementptr inbounds [1800 x i8], ptr %3, i64 0, i64 0
  store ptr %6, ptr %4, align 8
  %7 = load ptr, ptr %4, align 8
  %8 = getelementptr inbounds %class.JavaThread, ptr %7, i32 0, i32 8
  store ptr %8, ptr %5, align 8
  %9 = load ptr, ptr %5, align 8
  %10 = getelementptr inbounds [1800 x i8], ptr %3, i64 0, i64 0
  %11 = ptrtoint ptr %9 to i64
  %12 = ptrtoint ptr %10 to i64
  %13 = sub i64 %11, %12
  ret i64 %13
}

; Function Attrs: mustprogress nounwind uwtable
define linkonce_odr hidden noundef zeroext i1 @_ZNK10JavaThread13is_terminatedEv(ptr noundef nonnull align 8 dereferenceable(1800) %0) #1 comdat align 2 {
  %2 = alloca ptr, align 8
  %3 = alloca i32, align 4
  store ptr %0, ptr %2, align 8
  %4 = load ptr, ptr %2, align 8
  %5 = getelementptr inbounds %class.JavaThread, ptr %4, i32 0, i32 28
  %6 = call noundef i32 @_ZN6Atomic12load_acquireIN10JavaThread15TerminatedTypesEEET_PVKS3_(ptr noundef %5)
  store i32 %6, ptr %3, align 4
  %7 = load i32, ptr %3, align 4
  %8 = call noundef zeroext i1 @_ZNK10JavaThread19check_is_terminatedENS_15TerminatedTypesE(ptr noundef nonnull align 8 dereferenceable(1800) %4, i32 noundef %7)
  ret i1 %8
}

; Function Attrs: mustprogress nounwind uwtable
define linkonce_odr hidden noundef i32 @_Z8in_bytes8ByteSize(i32 noundef %0) #1 comdat {
  %2 = alloca i32, align 4
  store i32 %0, ptr %2, align 4
  %3 = load i32, ptr %2, align 4
  ret i32 %3
}

; Function Attrs: mustprogress nounwind uwtable
define linkonce_odr hidden noundef i32 @_ZN10JavaThread22jni_environment_offsetEv() #1 comdat align 2 {
  %1 = alloca %class.anon, align 1
  %2 = call noundef i64 @_ZZN10JavaThread22jni_environment_offsetEvENKUlvE_clEv(ptr noundef nonnull align 1 dereferenceable(1) %1)
  %3 = trunc i64 %2 to i32
  %4 = call noundef i32 @_Z11in_ByteSizei(i32 noundef %3)
  ret i32 %4
}

; Function Attrs: mustprogress nounwind uwtable
define linkonce_odr hidden void @_ZN2os22verify_stack_alignmentEv() #1 comdat align 2 {
  ret void
}

; Function Attrs: mustprogress nounwind uwtable
define linkonce_odr hidden noundef ptr @_ZN10JavaThread27thread_from_jni_environmentEP7JNIEnv_(ptr noundef %0) #1 comdat align 2 {
  %2 = alloca ptr, align 8
  %3 = alloca ptr, align 8
  store ptr %0, ptr %2, align 8
  %4 = load ptr, ptr %2, align 8
  %5 = ptrtoint ptr %4 to i64
  %6 = call noundef i32 @_ZN10JavaThread22jni_environment_offsetEv()
  %7 = call noundef i32 @_Z8in_bytes8ByteSize(i32 noundef %6)
  %8 = sext i32 %7 to i64
  %9 = sub nsw i64 %5, %8
  %10 = inttoptr i64 %9 to ptr
  store ptr %10, ptr %3, align 8
  %11 = load ptr, ptr %3, align 8
  %12 = call noundef zeroext i1 @_ZNK10JavaThread13is_terminatedEv(ptr noundef nonnull align 8 dereferenceable(1800) %11)
  br i1 %12, label %13, label %15

13:                                               ; preds = %1
  %14 = load ptr, ptr %3, align 8
  call void @_ZN10JavaThread18block_if_vm_exitedEv(ptr noundef nonnull align 8 dereferenceable(1800) %14)
  br label %15

15:                                               ; preds = %13, %1
  %16 = load ptr, ptr %3, align 8
  ret ptr %16
}

; Function Attrs: mustprogress nounwind uwtable
define hidden i32 @jni_GetObjectRefType(ptr noundef %0, ptr noundef %1) #1 {
  %3 = alloca ptr, align 8
  %4 = alloca ptr, align 8
  %5 = alloca ptr, align 8
  %6 = alloca i32, align 4
  store ptr %0, ptr %3, align 8
  store ptr %1, ptr %4, align 8
  %7 = load ptr, ptr %3, align 8
  %8 = call noundef ptr @_ZN10JavaThread27thread_from_jni_environmentEP7JNIEnv_(ptr noundef %7)
  store ptr %8, ptr %5, align 8
  call void @_ZN2os22verify_stack_alignmentEv()
  br label %9

9:                                                ; preds = %2
  %10 = load ptr, ptr %3, align 8
  %11 = load ptr, ptr %4, align 8
  call void asm sideeffect ".altmacro\0A.macro _SDT_SIGN x\0A.pushsection .note.stapsdt,\22\22,\22note\22\0A.iflt \\x\0A.ascii \22-\22\0A.endif\0A.popsection\0A.endm\0A.macro _SDT_SIZE_ x\0A.pushsection .note.stapsdt,\22\22,\22note\22\0A.ascii \22\\x\22\0A.popsection\0A.endm\0A.macro _SDT_SIZE x\0A_SDT_SIZE_ %((-(-\\x*((-\\x>0)-(-\\x<0))))>>8)\0A.endm\0A.macro _SDT_TYPE_ x\0A.pushsection .note.stapsdt,\22\22,\22note\22\0A.ifc 8,\\x\0A.ascii \22f\22\0A.endif\0A.ascii \22@\22\0A.popsection\0A.endm\0A.macro _SDT_TYPE x\0A_SDT_TYPE_ %((\\x)&(0xff))\0A.endm\0A990: nop\0A.pushsection .note.stapsdt,\22?\22,\22note\22\0A.balign 4\0A.4byte 992f-991f,994f-993f,3\0A991: .asciz \22stapsdt\22\0A992: .balign 4\0A993: .8byte 990b\0A.8byte _.stapsdt.base\0A.8byte 0\0A.asciz \22hotspot_jni\22\0A.asciz \22GetObjectRefType__entry\22\0A_SDT_SIGN ${0:n}\0A_SDT_SIZE ${0:n}\0A_SDT_TYPE ${0:n}\0A.ascii \22$1\22\0A.ascii \22\\x20\22\0A_SDT_SIGN ${2:n}\0A_SDT_SIZE ${2:n}\0A_SDT_TYPE ${2:n}\0A.ascii \22$3\22\0A.ascii \22\\x00\22\0A.purgem _SDT_SIGN\0A.purgem _SDT_SIZE_\0A.purgem _SDT_SIZE\0A.purgem _SDT_TYPE_\0A.purgem _SDT_TYPE\0A994: .balign 4\0A.popsection\0A", "n,norfxy,n,norfxy,~{dirflag},~{fpsr},~{flags}"(i32 -2053, ptr %10, i32 -2053, ptr %11) #10, !srcloc !95
  call void asm sideeffect ".ifndef _.stapsdt.base\0A.pushsection .stapsdt.base,\22aG\22,\22progbits\22,.stapsdt.base,comdat\0A.weak _.stapsdt.base\0A.hidden _.stapsdt.base\0A_.stapsdt.base: .space 1\0A.size _.stapsdt.base,1\0A.popsection\0A.endif\0A", "~{dirflag},~{fpsr},~{flags}"() #10, !srcloc !96
  br label %12

12:                                               ; preds = %9
  store i32 0, ptr %6, align 4
  %13 = load ptr, ptr %4, align 8
  %14 = icmp ne ptr %13, null
  br i1 %14, label %15, label %19

15:                                               ; preds = %12
  %16 = load ptr, ptr %5, align 8
  %17 = load ptr, ptr %4, align 8
  %18 = call noundef i32 @_ZN10JNIHandles11handle_typeEP10JavaThreadP8_jobject(ptr noundef %16, ptr noundef %17)
  store i32 %18, ptr %6, align 4
  br label %19

19:                                               ; preds = %15, %12
  br label %20

20:                                               ; preds = %19
  %21 = load i32, ptr %6, align 4
  %22 = zext i32 %21 to i64
  %23 = inttoptr i64 %22 to ptr
  call void asm sideeffect ".altmacro\0A.macro _SDT_SIGN x\0A.pushsection .note.stapsdt,\22\22,\22note\22\0A.iflt \\x\0A.ascii \22-\22\0A.endif\0A.popsection\0A.endm\0A.macro _SDT_SIZE_ x\0A.pushsection .note.stapsdt,\22\22,\22note\22\0A.ascii \22\\x\22\0A.popsection\0A.endm\0A.macro _SDT_SIZE x\0A_SDT_SIZE_ %((-(-\\x*((-\\x>0)-(-\\x<0))))>>8)\0A.endm\0A.macro _SDT_TYPE_ x\0A.pushsection .note.stapsdt,\22\22,\22note\22\0A.ifc 8,\\x\0A.ascii \22f\22\0A.endif\0A.ascii \22@\22\0A.popsection\0A.endm\0A.macro _SDT_TYPE x\0A_SDT_TYPE_ %((\\x)&(0xff))\0A.endm\0A990: nop\0A.pushsection .note.stapsdt,\22?\22,\22note\22\0A.balign 4\0A.4byte 992f-991f,994f-993f,3\0A991: .asciz \22stapsdt\22\0A992: .balign 4\0A993: .8byte 990b\0A.8byte _.stapsdt.base\0A.8byte 0\0A.asciz \22hotspot_jni\22\0A.asciz \22GetObjectRefType__return\22\0A_SDT_SIGN ${0:n}\0A_SDT_SIZE ${0:n}\0A_SDT_TYPE ${0:n}\0A.ascii \22$1\22\0A.ascii \22\\x00\22\0A.purgem _SDT_SIGN\0A.purgem _SDT_SIZE_\0A.purgem _SDT_SIZE\0A.purgem _SDT_TYPE_\0A.purgem _SDT_TYPE\0A994: .balign 4\0A.popsection\0A", "n,norfxy,~{dirflag},~{fpsr},~{flags}"(i32 -2053, ptr %23) #10, !srcloc !97
  call void asm sideeffect ".ifndef _.stapsdt.base\0A.pushsection .stapsdt.base,\22aG\22,\22progbits\22,.stapsdt.base,comdat\0A.weak _.stapsdt.base\0A.hidden _.stapsdt.base\0A_.stapsdt.base: .space 1\0A.size _.stapsdt.base,1\0A.popsection\0A.endif\0A", "~{dirflag},~{fpsr},~{flags}"() #10, !srcloc !98
  br label %24

24:                                               ; preds = %20
  %25 = load i32, ptr %6, align 4
  ret i32 %25
}